target datalayout = "e-m:e-p270:32:32-p271:32:32-p272:64:64-i64:64-i128:128-f80:128-n8:16:32:64-S128"
target triple = "x86_64-pc-linux-gnu"

%"class.cv::Rect_" = type { i32, i32, i32, i32 }
%"class.cv::Size_" = type { i32, i32 }
%"class.cv::_InputArray" = type { i32, ptr, %"class.cv::Size_" }
%"class.cv::MatExpr" = type { ptr, i32, %"class.cv::Mat", %"class.cv::Mat", %"class.cv::Mat", double, double, %"class.cv::Scalar_" }
%"class.cv::Mat" = type { i32, i32, i32, i32, ptr, ptr, ptr, ptr, ptr, ptr, %"struct.cv::MatSize", %"struct.cv::MatStep" }
%"struct.cv::MatSize" = type { ptr }
%"struct.cv::MatStep" = type { ptr, [2 x i64] }
%"class.cv::Scalar_" = type { %"class.cv::Vec" }
%"class.cv::Vec" = type { %"class.cv::Matx" }
%"class.cv::Matx" = type { [4 x double] }

; Function Attrs: mustprogress nounwind uwtable
define linkonce_odr hidden void @_ZN2cv11_InputArrayD2Ev(ptr noundef nonnull align 8 dereferenceable(24) %0) unnamed_addr #6 comdat align 2 {
  %2 = alloca ptr, align 8
  store ptr %0, ptr %2, align 8
  ret void
}

; Function Attrs: mustprogress uwtable
define { i64, i64 } @_ZN2cv6detail14PlaneWarperGpu9buildMapsENS_5Size_IiEERKNS_11_InputArrayES6_S6_RNS_4cuda6GpuMatES9_(ptr noundef nonnull align 8 dereferenceable(424) %0, i64 %1, ptr noundef nonnull align 8 dereferenceable(24) %2, ptr noundef nonnull align 8 dereferenceable(24) %3, ptr noundef nonnull align 8 dereferenceable(24) %4, ptr noundef nonnull align 8 dereferenceable(64) %5, ptr noundef nonnull align 8 dereferenceable(64) %6) #4 align 2 {
  %8 = alloca %"class.cv::Size_", align 4
  %9 = alloca ptr, align 8
  %10 = alloca ptr, align 8
  %11 = alloca ptr, align 8
  %12 = alloca ptr, align 8
  %13 = alloca ptr, align 8
  %14 = alloca ptr, align 8
  store i64 %1, ptr %8, align 4
  store ptr %0, ptr %9, align 8
  store ptr %2, ptr %10, align 8
  store ptr %3, ptr %11, align 8
  store ptr %4, ptr %12, align 8
  store ptr %5, ptr %13, align 8
  store ptr %6, ptr %14, align 8
  call void @_ZL13throw_no_cudav() #9
  unreachable
}

; Function Attrs: mustprogress uwtable
define { i64, i64 } @_ZN2cv6detail14PlaneWarperGpu9buildMapsENS_5Size_IiEERKNS_11_InputArrayES6_RNS_4cuda6GpuMatES9_(ptr noundef nonnull align 8 dereferenceable(424) %0, i64 %1, ptr noundef nonnull align 8 dereferenceable(24) %2, ptr noundef nonnull align 8 dereferenceable(24) %3, ptr noundef nonnull align 8 dereferenceable(64) %4, ptr noundef nonnull align 8 dereferenceable(64) %5) #4 align 2 personality ptr @__gxx_personality_v0 {
  %7 = alloca %"class.cv::Rect_", align 4
  %8 = alloca %"class.cv::Size_", align 4
  %9 = alloca ptr, align 8
  %10 = alloca ptr, align 8
  %11 = alloca ptr, align 8
  %12 = alloca ptr, align 8
  %13 = alloca ptr, align 8
  %14 = alloca %"class.cv::Size_", align 4
  %15 = alloca %"class.cv::_InputArray", align 8
  %16 = alloca %"class.cv::MatExpr", align 8
  %17 = alloca ptr, align 8
  %18 = alloca i32, align 4
  store i64 %1, ptr %8, align 4
  store ptr %0, ptr %9, align 8
  store ptr %2, ptr %10, align 8
  store ptr %3, ptr %11, align 8
  store ptr %4, ptr %12, align 8
  store ptr %5, ptr %13, align 8
  %19 = load ptr, ptr %9, align 8
  call void @llvm.memcpy.p0.p0.i64(ptr align 4 %14, ptr align 4 %8, i64 8, i1 false)
  %20 = load ptr, ptr %10, align 8
  %21 = load ptr, ptr %11, align 8
  call void @_ZN2cv3Mat5zerosEiii(ptr dead_on_unwind writable sret(%"class.cv::MatExpr") align 8 %16, i32 noundef 3, i32 noundef 1, i32 noundef 5)
  invoke void @_ZN2cv11_InputArrayC1ERKNS_7MatExprE(ptr noundef nonnull align 8 dereferenceable(24) %15, ptr noundef nonnull align 8 dereferenceable(352) %16)
          to label %22 unwind label %33

22:                                               ; preds = %6
  %23 = load ptr, ptr %12, align 8
  %24 = load ptr, ptr %13, align 8
  %25 = load i64, ptr %14, align 4
  %26 = invoke { i64, i64 } @_ZN2cv6detail14PlaneWarperGpu9buildMapsENS_5Size_IiEERKNS_11_InputArrayES6_S6_RNS_4cuda6GpuMatES9_(ptr noundef nonnull align 8 dereferenceable(424) %19, i64 %25, ptr noundef nonnull align 8 dereferenceable(24) %20, ptr noundef nonnull align 8 dereferenceable(24) %21, ptr noundef nonnull align 8 dereferenceable(24) %15, ptr noundef nonnull align 8 dereferenceable(64) %23, ptr noundef nonnull align 8 dereferenceable(64) %24)
          to label %27 unwind label %37

27:                                               ; preds = %22
  %28 = getelementptr inbounds { i64, i64 }, ptr %7, i32 0, i32 0
  %29 = extractvalue { i64, i64 } %26, 0
  store i64 %29, ptr %28, align 4
  %30 = getelementptr inbounds { i64, i64 }, ptr %7, i32 0, i32 1
  %31 = extractvalue { i64, i64 } %26, 1
  store i64 %31, ptr %30, align 4
  call void @_ZN2cv11_InputArrayD2Ev(ptr noundef nonnull align 8 dereferenceable(24) %15) #3
  call void @_ZN2cv7MatExprD2Ev(ptr noundef nonnull align 8 dereferenceable(352) %16) #3
  %32 = load { i64, i64 }, ptr %7, align 4
  ret { i64, i64 } %32

33:                                               ; preds = %6
  %34 = landingpad { ptr, i32 }
          cleanup
  %35 = extractvalue { ptr, i32 } %34, 0
  store ptr %35, ptr %17, align 8
  %36 = extractvalue { ptr, i32 } %34, 1
  store i32 %36, ptr %18, align 4
  br label %41

37:                                               ; preds = %22
  %38 = landingpad { ptr, i32 }
          cleanup
  %39 = extractvalue { ptr, i32 } %38, 0
  store ptr %39, ptr %17, align 8
  %40 = extractvalue { ptr, i32 } %38, 1
  store i32 %40, ptr %18, align 4
  call void @_ZN2cv11_InputArrayD2Ev(ptr noundef nonnull align 8 dereferenceable(24) %15) #3
  br label %41

41:                                               ; preds = %37, %33
  call void @_ZN2cv7MatExprD2Ev(ptr noundef nonnull align 8 dereferenceable(352) %16) #3
  br label %42

42:                                               ; preds = %41
  %43 = load ptr, ptr %17, align 8
  %44 = load i32, ptr %18, align 4
  %45 = insertvalue { ptr, i32 } poison, ptr %43, 0
  %46 = insertvalue { ptr, i32 } %45, i32 %44, 1
  resume { ptr, i32 } %46
}