; Function Attrs: mustprogress noreturn uwtable
define noundef { i64, i64 } @_ZN2cv6detail14PlaneWarperGpu9buildMapsENS_5Size_IiEERKNS_11_InputArrayES6_RNS_4cuda6GpuMatES9_(ptr nocapture noundef nonnull readnone align 8 dereferenceable(424) %0, i64 %1, ptr nocapture noundef nonnull readnone align 8 dereferenceable(24) %2, ptr nocapture noundef nonnull readnone align 8 dereferenceable(24) %3, ptr nocapture noundef nonnull readnone align 8 dereferenceable(64) %4, ptr nocapture noundef nonnull readnone align 8 dereferenceable(64) %5) local_unnamed_addr #3 align 2 personality ptr @__gxx_personality_v0 {
  %7 = alloca %"class.cv::_InputArray", align 8
  %8 = alloca %"class.cv::MatExpr", align 8
  call void @_ZN2cv3Mat5zerosEiii(ptr dead_on_unwind nonnull writable sret(%"class.cv::MatExpr") align 8 %8, i32 noundef 3, i32 noundef 1, i32 noundef 5)
  invoke void @_ZN2cv11_InputArrayC1ERKNS_7MatExprE(ptr noundef nonnull align 8 dereferenceable(24) %7, ptr noundef nonnull align 8 dereferenceable(352) %8)
          to label %9 unwind label %10

9:                                                ; preds = %6
  invoke fastcc void @_ZL13throw_no_cudav() #7
          to label %.noexc unwind label %12

.noexc:                                           ; preds = %9
  unreachable

10:                                               ; preds = %6
  %11 = landingpad { ptr, i32 }
          cleanup
  br label %14

12:                                               ; preds = %9
  %13 = landingpad { ptr, i32 }
          cleanup
  br label %14

14:                                               ; preds = %12, %10
  %.pn = phi { ptr, i32 } [ %13, %12 ], [ %11, %10 ]
  call void @_ZN2cv7MatExprD2Ev(ptr noundef nonnull align 8 dereferenceable(352) %8) #8
  resume { ptr, i32 } %.pn
}